(lp1
(lp2
F0.22993253490762555
aF-0.049927108207130144
aF0.67357688463900467
aF-0.61002132926438812
aF-0.60374187574244031
aF0.33310053194471823
aa(lp3
F0.25677832405934164
aF0.85323958472418449
aF-0.98933289442974304
aF0.25562329976939435
aF0.24271706894203285
aI-1
aa(lp4
F-0.46429043773492062
aF-0.25186350080625908
aF0.064552294226923435
aF-0.36913742018088436
aF-0.37336484176694662
aF0.74892304620060735
aa(lp5
F-0.67007414674268995
aF0.45674077565831506
aF0.072667020742368527
aF-0.13728195240017693
aF0.67451632462249522
aF-0.38487713991746242
aa(lp6
F0.31794219519120392
aF0.098990928450980897
aF0.85011025266798512
aF-0.15569144226614373
aF0.067691867831726871
aF-0.45756522193524596
aa(lp7
F0.99573254095186758
aF0.010575158733816314
aF-0.99111943377093725
aF-0.82892197952845026
aF-0.47457059271465474
aF0.41084960417902661
aa.a.084960417902661
aa.