(lp1
(lp2
F0.90918137335683635
aF-0.11433905460565108
aF-0.32493473476687496
aa(lp3
F0.56341224503926679
aF-0.061214872201270421
aF0.50689154298241146
aa(lp4
F0.47367822282521466
aF0.11636053717582104
aF-0.27029547448747682
aa(lp5
F0.079977455840985923
aF0.089785137429279738
aF0.94620658736494501
aa(lp6
F0.059529210584930464
aF-0.63185254232632793
aF-0.37557138008753022
aa(lp7
F-0.80111288755128751
aI-1
aF-0.042591079538576271
aa.90011938633
aa.