(lp1
(lp2
I1
aF0.86463862036404127
aF0.54918614250631204
aF-0.83907986064007334
aF-0.38652170285269399
aF-0.75188426348232906
aa(lp3
F-0.42440379413867113
aF0.94395509146978895
aF0.85983223575175982
aF0.75362547286668291
aF-0.52397817977562533
aF0.050196922450589765
aa(lp4
I-1
aF-0.97053315270116403
aF-0.3852405546457261
aF0.027988900330928879
aF0.68423265285426582
aF-0.35580932063972287
aa(lp5
F0.6542937249201406
aF-0.72280142282787718
aF-0.53692725232241134
aF-0.10113117083878069
aF0.17689520728729768
aF-0.88636979450372388
aa(lp6
F0.75165604909059558
aF0.64562156402457271
aF0.24667433399699601
aF-0.040633800410160653
aF0.91391093452314165
aF-0.62663046814595924
aa(lp7
F-0.82277817191015234
aF0.57621597427533966
aF-0.27248272431672227
aF0.75252293829475025
aF0.6262285905745002
aF0.35449210208340698
aa.41722941967272
aa.22941967272
aa.